; Function Attrs: nounwind sspstrong uwtable
define dso_local range(i64 1, -7) i64 @rb_io_ascii8bit_binmode(i64 noundef returned %0) local_unnamed_addr #0 {
  %2 = icmp eq i64 %0, 0
  %3 = and i64 %0, 7
  %4 = icmp ne i64 %3, 0
  %5 = or i1 %2, %4
  br i1 %5, label %RB_OBJ_FROZEN.exit.thread.i.i, label %RB_FL_ABLE.exit.i.i.i, !prof !24

RB_FL_ABLE.exit.i.i.i:                            ; preds = %1
  %6 = inttoptr i64 %0 to ptr
  %7 = load i64, ptr %6, align 8, !tbaa !25
  %8 = and i64 %7, 31
  %.not.i.i.i = icmp eq i64 %8, 27
  %9 = and i64 %7, 2048
  %10 = icmp ne i64 %9, 0
  %or.cond.i.i = or i1 %.not.i.i.i, %10
  br i1 %or.cond.i.i, label %RB_OBJ_FROZEN.exit.thread.i.i, label %rbimpl_RB_TYPE_P_fastpath.exit.i.i, !prof !27

RB_OBJ_FROZEN.exit.thread.i.i:                    ; preds = %RB_FL_ABLE.exit.i.i.i, %1
  tail call void @rb_error_frozen_object(i64 noundef %0) #30
  unreachable

rbimpl_RB_TYPE_P_fastpath.exit.i.i:               ; preds = %RB_FL_ABLE.exit.i.i.i
  %11 = icmp ne i64 %8, 5
  %12 = and i64 %7, 49152
  %.not.i.i = icmp eq i64 %12, 0
  %or.cond8.i.i = or i1 %11, %.not.i.i
  br i1 %or.cond8.i.i, label %rb_io_taint_check.exit, label %13, !prof !28

13:                                               ; preds = %rbimpl_RB_TYPE_P_fastpath.exit.i.i
  tail call void @rb_str_modify(i64 noundef %0) #28
  br label %rb_io_taint_check.exit

rb_io_taint_check.exit:                           ; preds = %rbimpl_RB_TYPE_P_fastpath.exit.i.i, %13
  %14 = getelementptr inbounds nuw i8, ptr %6, i64 16
  %15 = load ptr, ptr %14, align 8, !tbaa !29
  %.not.i.i2 = icmp eq ptr %15, null
  br i1 %.not.i.i2, label %16, label %rb_io_check_initialized.exit.i

16:                                               ; preds = %rb_io_taint_check.exit
  %17 = load i64, ptr @rb_eIOError, align 8, !tbaa !23
  tail call void (i64, ptr, ...) @rb_raise(i64 noundef %17, ptr noundef nonnull @.str.4) #30
  unreachable

rb_io_check_initialized.exit.i:                   ; preds = %rb_io_taint_check.exit
  %18 = getelementptr inbounds nuw i8, ptr %15, i64 16
  %19 = load i32, ptr %18, align 8, !tbaa !7
  %20 = icmp slt i32 %19, 0
  br i1 %20, label %21, label %rb_io_check_closed.exit

21:                                               ; preds = %rb_io_check_initialized.exit.i
  tail call void @rb_thread_check_ints() #28
  %22 = load i64, ptr @rb_eIOError, align 8, !tbaa !23
  tail call void (i64, ptr, ...) @rb_raise(i64 noundef %22, ptr noundef nonnull @closed_stream) #30
  unreachable

rb_io_check_closed.exit:                          ; preds = %rb_io_check_initialized.exit.i
  tail call fastcc void @io_ascii8bit_binmode(ptr noundef nonnull %15)
  ret i64 %0
}